; Function Attrs: mustprogress uwtable
define hidden void @_ZN4cvc58internal6theory14TheoryRewriter16expandDefinitionENS0_12NodeTemplateILb1EEE(ptr dead_on_unwind noalias writable writeonly sret(%"class.cvc5::internal::NodeTemplate") align 8 captures(none) initializes((0, 8)) %0, ptr nonnull readnone align 8 captures(none) %1, ptr readnone captures(none) %2) unnamed_addr #3 align 2 {
  tail call void @llvm.experimental.noalias.scope.decl(metadata !27)
  %4 = load ptr, ptr @_ZN4cvc58internal12NodeTemplateILb1EE6s_nullE, align 8, !tbaa !17, !noalias !27
  store ptr %4, ptr %0, align 8, !tbaa !17, !alias.scope !27
  %5 = load i64, ptr %4, align 8, !noalias !27
  %6 = lshr i64 %5, 40
  %7 = trunc nuw nsw i64 %6 to i32
  %8 = and i32 %7, 1048575
  %9 = icmp samesign ult i32 %8, 1048574
  br i1 %9, label %10, label %15, !prof !21

10:                                               ; preds = %3
  %11 = add i64 %5, 1099511627776
  %12 = and i64 %11, 1152920405095219200
  %13 = and i64 %5, -1152920405095219201
  %14 = or disjoint i64 %12, %13
  store i64 %14, ptr %4, align 8, !noalias !27
  br label %_ZN4cvc58internal12NodeTemplateILb1EE4nullEv.exit

15:                                               ; preds = %3
  %16 = icmp eq i32 %8, 1048574
  br i1 %16, label %17, label %_ZN4cvc58internal12NodeTemplateILb1EE4nullEv.exit, !prof !22

17:                                               ; preds = %15
  %18 = or i64 %5, 1152920405095219200
  store i64 %18, ptr %4, align 8, !noalias !27
  tail call void @_ZN4cvc58internal4expr9NodeValue20markRefCountMaxedOutEv(ptr noundef nonnull align 8 dereferenceable(24) %4), !noalias !27
  br label %_ZN4cvc58internal12NodeTemplateILb1EE4nullEv.exit

_ZN4cvc58internal12NodeTemplateILb1EE4nullEv.exit: ; preds = %10, %15, %17
  ret void
}